target datalayout = "e-m:e-p270:32:32-p271:32:32-p272:64:64-i64:64-i128:128-f80:128-n8:16:32:64-S128"
target triple = "x86_64-pc-linux-gnu"

%struct.v3_ext_ctx = type { i32, ptr, ptr, ptr, ptr, ptr, ptr, ptr }
%struct.CONF_VALUE = type { ptr, ptr, ptr }

@.str.1 = private unnamed_addr constant [23 x i8] c"authorityKeyIdentifier\00", align 1
@.str.2 = private unnamed_addr constant [21 x i8] c"subjectKeyIdentifier\00", align 1

; Function Attrs: nounwind uwtable
define internal void @delete_ext(ptr noundef %0, ptr noundef %1) #0 {
  %3 = alloca ptr, align 8
  %4 = alloca ptr, align 8
  %5 = alloca i32, align 4
  %6 = alloca ptr, align 8
  store ptr %0, ptr %3, align 8, !tbaa !59
  store ptr %1, ptr %4, align 8, !tbaa !14
  call void @llvm.lifetime.start.p0(i64 4, ptr %5) #5
  call void @llvm.lifetime.start.p0(i64 8, ptr %6) #5
  %7 = load ptr, ptr %4, align 8, !tbaa !14
  %8 = call ptr @X509_EXTENSION_get_object(ptr noundef %7)
  store ptr %8, ptr %6, align 8, !tbaa !24
  br label %9

9:                                                ; preds = %14, %2
  %10 = load ptr, ptr %3, align 8, !tbaa !59
  %11 = load ptr, ptr %6, align 8, !tbaa !24
  %12 = call i32 @X509v3_get_ext_by_OBJ(ptr noundef %10, ptr noundef %11, i32 noundef -1)
  store i32 %12, ptr %5, align 4, !tbaa !12
  %13 = icmp sge i32 %12, 0
  br i1 %13, label %14, label %18

14:                                               ; preds = %9
  %15 = load ptr, ptr %3, align 8, !tbaa !59
  %16 = load i32, ptr %5, align 4, !tbaa !12
  %17 = call ptr @X509v3_delete_ext(ptr noundef %15, i32 noundef %16)
  call void @X509_EXTENSION_free(ptr noundef %17)
  br label %9, !llvm.loop !62

18:                                               ; preds = %9
  call void @llvm.lifetime.end.p0(i64 8, ptr %6) #5
  call void @llvm.lifetime.end.p0(i64 4, ptr %5) #5
  ret void
}

; Function Attrs: inlinehint nounwind uwtable
define internal ptr @ossl_check_const_CONF_VALUE_sk_type(ptr noundef %0) #3 {
  %2 = alloca ptr, align 8
  store ptr %0, ptr %2, align 8, !tbaa !35
  %3 = load ptr, ptr %2, align 8, !tbaa !35
  ret ptr %3
}

; Function Attrs: nounwind uwtable
define i32 @X509V3_EXT_add_nconf_sk(ptr noundef %0, ptr noundef %1, ptr noundef %2, ptr noundef %3) #0 {
  %5 = alloca i32, align 4
  %6 = alloca ptr, align 8
  %7 = alloca ptr, align 8
  %8 = alloca ptr, align 8
  %9 = alloca ptr, align 8
  %10 = alloca ptr, align 8
  %11 = alloca ptr, align 8
  %12 = alloca ptr, align 8
  %13 = alloca i32, align 4
  %14 = alloca i32, align 4
  %15 = alloca i32, align 4
  %16 = alloca i32, align 4
  store ptr %0, ptr %6, align 8, !tbaa !3
  store ptr %1, ptr %7, align 8, !tbaa !8
  store ptr %2, ptr %8, align 8, !tbaa !10
  store ptr %3, ptr %9, align 8, !tbaa !51
  call void @llvm.lifetime.start.p0(i64 8, ptr %10) #5
  call void @llvm.lifetime.start.p0(i64 8, ptr %11) #5
  call void @llvm.lifetime.start.p0(i64 8, ptr %12) #5
  call void @llvm.lifetime.start.p0(i64 4, ptr %13) #5
  call void @llvm.lifetime.start.p0(i64 4, ptr %14) #5
  store i32 -1, ptr %14, align 4, !tbaa !12
  call void @llvm.lifetime.start.p0(i64 4, ptr %15) #5
  store i32 -1, ptr %15, align 4, !tbaa !12
  %17 = load ptr, ptr %6, align 8, !tbaa !3
  %18 = load ptr, ptr %8, align 8, !tbaa !10
  %19 = call ptr @NCONF_get_section(ptr noundef %17, ptr noundef %18)
  store ptr %19, ptr %11, align 8, !tbaa !35
  %20 = icmp eq ptr %19, null
  br i1 %20, label %21, label %22

21:                                               ; preds = %4
  store i32 0, ptr %5, align 4
  store i32 1, ptr %16, align 4
  br label %133

22:                                               ; preds = %4
  store i32 0, ptr %13, align 4, !tbaa !12
  br label %23

23:                                               ; preds = %51, %22
  %24 = load i32, ptr %13, align 4, !tbaa !12
  %25 = load ptr, ptr %11, align 8, !tbaa !35
  %26 = call ptr @ossl_check_const_CONF_VALUE_sk_type(ptr noundef %25)
  %27 = call i32 @OPENSSL_sk_num(ptr noundef %26)
  %28 = icmp slt i32 %24, %27
  br i1 %28, label %29, label %54

29:                                               ; preds = %23
  %30 = load ptr, ptr %11, align 8, !tbaa !35
  %31 = call ptr @ossl_check_const_CONF_VALUE_sk_type(ptr noundef %30)
  %32 = load i32, ptr %13, align 4, !tbaa !12
  %33 = call ptr @OPENSSL_sk_value(ptr noundef %31, i32 noundef %32)
  store ptr %33, ptr %12, align 8, !tbaa !37
  %34 = load ptr, ptr %12, align 8, !tbaa !37
  %35 = getelementptr inbounds nuw %struct.CONF_VALUE, ptr %34, i32 0, i32 1
  %36 = load ptr, ptr %35, align 8, !tbaa !53
  %37 = call i32 @strcmp(ptr noundef %36, ptr noundef @.str.1) #6
  %38 = icmp eq i32 %37, 0
  br i1 %38, label %39, label %41

39:                                               ; preds = %29
  %40 = load i32, ptr %13, align 4, !tbaa !12
  store i32 %40, ptr %14, align 4, !tbaa !12
  br label %50

41:                                               ; preds = %29
  %42 = load ptr, ptr %12, align 8, !tbaa !37
  %43 = getelementptr inbounds nuw %struct.CONF_VALUE, ptr %42, i32 0, i32 1
  %44 = load ptr, ptr %43, align 8, !tbaa !53
  %45 = call i32 @strcmp(ptr noundef %44, ptr noundef @.str.2) #6
  %46 = icmp eq i32 %45, 0
  br i1 %46, label %47, label %49

47:                                               ; preds = %41
  %48 = load i32, ptr %13, align 4, !tbaa !12
  store i32 %48, ptr %15, align 4, !tbaa !12
  br label %49

49:                                               ; preds = %47, %41
  br label %50

50:                                               ; preds = %49, %39
  br label %51

51:                                               ; preds = %50
  %52 = load i32, ptr %13, align 4, !tbaa !12
  %53 = add nsw i32 %52, 1
  store i32 %53, ptr %13, align 4, !tbaa !12
  br label %23, !llvm.loop !55

54:                                               ; preds = %23
  store i32 0, ptr %13, align 4, !tbaa !12
  br label %55

55:                                               ; preds = %129, %54
  %56 = load i32, ptr %13, align 4, !tbaa !12
  %57 = load ptr, ptr %11, align 8, !tbaa !35
  %58 = call ptr @ossl_check_const_CONF_VALUE_sk_type(ptr noundef %57)
  %59 = call i32 @OPENSSL_sk_num(ptr noundef %58)
  %60 = icmp slt i32 %56, %59
  br i1 %60, label %61, label %132

61:                                               ; preds = %55
  %62 = load ptr, ptr %11, align 8, !tbaa !35
  %63 = call ptr @ossl_check_const_CONF_VALUE_sk_type(ptr noundef %62)
  %64 = load i32, ptr %13, align 4, !tbaa !12
  %65 = call ptr @OPENSSL_sk_value(ptr noundef %63, i32 noundef %64)
  store ptr %65, ptr %12, align 8, !tbaa !37
  %66 = load i32, ptr %15, align 4, !tbaa !12
  %67 = load i32, ptr %14, align 4, !tbaa !12
  %68 = icmp sgt i32 %66, %67
  br i1 %68, label %69, label %92

69:                                               ; preds = %61
  %70 = load i32, ptr %14, align 4, !tbaa !12
  %71 = icmp sge i32 %70, 0
  br i1 %71, label %72, label %92

72:                                               ; preds = %69
  %73 = load i32, ptr %13, align 4, !tbaa !12
  %74 = load i32, ptr %14, align 4, !tbaa !12
  %75 = icmp eq i32 %73, %74
  br i1 %75, label %76, label %81

76:                                               ; preds = %72
  %77 = load ptr, ptr %11, align 8, !tbaa !35
  %78 = call ptr @ossl_check_const_CONF_VALUE_sk_type(ptr noundef %77)
  %79 = load i32, ptr %15, align 4, !tbaa !12
  %80 = call ptr @OPENSSL_sk_value(ptr noundef %78, i32 noundef %79)
  store ptr %80, ptr %12, align 8, !tbaa !37
  br label %91

81:                                               ; preds = %72
  %82 = load i32, ptr %13, align 4, !tbaa !12
  %83 = load i32, ptr %15, align 4, !tbaa !12
  %84 = icmp eq i32 %82, %83
  br i1 %84, label %85, label %90

85:                                               ; preds = %81
  %86 = load ptr, ptr %11, align 8, !tbaa !35
  %87 = call ptr @ossl_check_const_CONF_VALUE_sk_type(ptr noundef %86)
  %88 = load i32, ptr %14, align 4, !tbaa !12
  %89 = call ptr @OPENSSL_sk_value(ptr noundef %87, i32 noundef %88)
  store ptr %89, ptr %12, align 8, !tbaa !37
  br label %90

90:                                               ; preds = %85, %81
  br label %91

91:                                               ; preds = %90, %76
  br label %92

92:                                               ; preds = %91, %69, %61
  %93 = load ptr, ptr %6, align 8, !tbaa !3
  %94 = load ptr, ptr %7, align 8, !tbaa !8
  %95 = load ptr, ptr %12, align 8, !tbaa !37
  %96 = getelementptr inbounds nuw %struct.CONF_VALUE, ptr %95, i32 0, i32 0
  %97 = load ptr, ptr %96, align 8, !tbaa !56
  %98 = load ptr, ptr %12, align 8, !tbaa !37
  %99 = getelementptr inbounds nuw %struct.CONF_VALUE, ptr %98, i32 0, i32 1
  %100 = load ptr, ptr %99, align 8, !tbaa !53
  %101 = load ptr, ptr %12, align 8, !tbaa !37
  %102 = getelementptr inbounds nuw %struct.CONF_VALUE, ptr %101, i32 0, i32 2
  %103 = load ptr, ptr %102, align 8, !tbaa !57
  %104 = call ptr @X509V3_EXT_nconf_int(ptr noundef %93, ptr noundef %94, ptr noundef %97, ptr noundef %100, ptr noundef %103)
  store ptr %104, ptr %10, align 8, !tbaa !14
  %105 = icmp eq ptr %104, null
  br i1 %105, label %106, label %107

106:                                              ; preds = %92
  store i32 0, ptr %5, align 4
  store i32 1, ptr %16, align 4
  br label %133

107:                                              ; preds = %92
  %108 = load ptr, ptr %9, align 8, !tbaa !51
  %109 = icmp ne ptr %108, null
  br i1 %109, label %110, label %127

110:                                              ; preds = %107
  %111 = load ptr, ptr %7, align 8, !tbaa !8
  %112 = getelementptr inbounds nuw %struct.v3_ext_ctx, ptr %111, i32 0, i32 0
  %113 = load i32, ptr %112, align 8, !tbaa !58
  %114 = icmp eq i32 %113, 2
  br i1 %114, label %115, label %119

115:                                              ; preds = %110
  %116 = load ptr, ptr %9, align 8, !tbaa !51
  %117 = load ptr, ptr %116, align 8, !tbaa !59
  %118 = load ptr, ptr %10, align 8, !tbaa !14
  call void @delete_ext(ptr noundef %117, ptr noundef %118)
  br label %119

119:                                              ; preds = %115, %110
  %120 = load ptr, ptr %9, align 8, !tbaa !51
  %121 = load ptr, ptr %10, align 8, !tbaa !14
  %122 = call ptr @X509v3_add_ext(ptr noundef %120, ptr noundef %121, i32 noundef -1)
  %123 = icmp eq ptr %122, null
  br i1 %123, label %124, label %126

124:                                              ; preds = %119
  %125 = load ptr, ptr %10, align 8, !tbaa !14
  call void @X509_EXTENSION_free(ptr noundef %125)
  store i32 0, ptr %5, align 4
  store i32 1, ptr %16, align 4
  br label %133

126:                                              ; preds = %119
  br label %127

127:                                              ; preds = %126, %107
  %128 = load ptr, ptr %10, align 8, !tbaa !14
  call void @X509_EXTENSION_free(ptr noundef %128)
  br label %129

129:                                              ; preds = %127
  %130 = load i32, ptr %13, align 4, !tbaa !12
  %131 = add nsw i32 %130, 1
  store i32 %131, ptr %13, align 4, !tbaa !12
  br label %55, !llvm.loop !61

132:                                              ; preds = %55
  store i32 1, ptr %5, align 4
  store i32 1, ptr %16, align 4
  br label %133

133:                                              ; preds = %132, %124, %106, %21
  call void @llvm.lifetime.end.p0(i64 4, ptr %15) #5
  call void @llvm.lifetime.end.p0(i64 4, ptr %14) #5
  call void @llvm.lifetime.end.p0(i64 4, ptr %13) #5
  call void @llvm.lifetime.end.p0(i64 8, ptr %12) #5
  call void @llvm.lifetime.end.p0(i64 8, ptr %11) #5
  call void @llvm.lifetime.end.p0(i64 8, ptr %10) #5
  %134 = load i32, ptr %5, align 4
  ret i32 %134
}