; Function Attrs: nounwind uwtable
define range(i32 0, 2) i32 @X509V3_EXT_add_nconf_sk(ptr noundef %0, ptr noundef %1, ptr noundef %2, ptr noundef %3) local_unnamed_addr #0 {
  %5 = tail call ptr @NCONF_get_section(ptr noundef %0, ptr noundef %2) #6
  %6 = icmp eq ptr %5, null
  br i1 %6, label %.loopexit, label %.preheader50

.preheader50:                                     ; preds = %4
  %7 = tail call i32 @OPENSSL_sk_num(ptr noundef nonnull %5) #6
  %8 = icmp sgt i32 %7, 0
  br i1 %8, label %.lr.ph, label %.preheader

.preheader:                                       ; preds = %50, %.preheader50
  %.041.lcssa = phi i32 [ -1, %.preheader50 ], [ %.142, %50 ]
  %.0.lcssa = phi i32 [ -1, %.preheader50 ], [ %.1, %50 ]
  %9 = tail call i32 @OPENSSL_sk_num(ptr noundef nonnull %5) #6
  %10 = icmp sgt i32 %9, 0
  br i1 %10, label %.lr.ph56, label %.loopexit

.lr.ph56:                                         ; preds = %.preheader
  %11 = icmp sgt i32 %.0.lcssa, %.041.lcssa
  %12 = icmp sgt i32 %.041.lcssa, -1
  %or.cond = and i1 %12, %11
  %or.cond.fr = freeze i1 %or.cond
  %.not = icmp eq ptr %3, null
  br i1 %.not, label %.lr.ph56.split.us, label %.lr.ph56.split

.lr.ph56.split.us:                                ; preds = %.lr.ph56
  br i1 %or.cond.fr, label %.lr.ph56.split.us.split.us, label %.lr.ph56.split.us.split

.lr.ph56.split.us.split.us:                       ; preds = %.lr.ph56.split.us, %26
  %.14455.us.us = phi i32 [ %27, %26 ], [ 0, %.lr.ph56.split.us ]
  %13 = tail call ptr @OPENSSL_sk_value(ptr noundef nonnull %5, i32 noundef %.14455.us.us) #6
  %14 = icmp eq i32 %.14455.us.us, %.041.lcssa
  br i1 %14, label %.sink.split, label %15

15:                                               ; preds = %.lr.ph56.split.us.split.us
  %16 = icmp eq i32 %.14455.us.us, %.0.lcssa
  br i1 %16, label %.sink.split, label %18

.sink.split:                                      ; preds = %.lr.ph56.split.us.split.us, %15
  %.0.lcssa.sink = phi i32 [ %.041.lcssa, %15 ], [ %.0.lcssa, %.lr.ph56.split.us.split.us ]
  %17 = tail call ptr @OPENSSL_sk_value(ptr noundef nonnull %5, i32 noundef %.0.lcssa.sink) #6
  br label %18

18:                                               ; preds = %.sink.split, %15
  %.045.us.us = phi ptr [ %13, %15 ], [ %17, %.sink.split ]
  %19 = load ptr, ptr %.045.us.us, align 8, !tbaa !33
  %20 = getelementptr inbounds nuw i8, ptr %.045.us.us, i64 8
  %21 = load ptr, ptr %20, align 8, !tbaa !35
  %22 = getelementptr inbounds nuw i8, ptr %.045.us.us, i64 16
  %23 = load ptr, ptr %22, align 8, !tbaa !36
  %24 = tail call fastcc ptr @X509V3_EXT_nconf_int(ptr noundef %0, ptr noundef %1, ptr noundef %19, ptr noundef %21, ptr noundef %23)
  %25 = icmp eq ptr %24, null
  br i1 %25, label %.loopexit, label %26

26:                                               ; preds = %18
  tail call void @X509_EXTENSION_free(ptr noundef nonnull %24) #6
  %27 = add nuw nsw i32 %.14455.us.us, 1
  %28 = tail call i32 @OPENSSL_sk_num(ptr noundef nonnull %5) #6
  %29 = icmp slt i32 %27, %28
  br i1 %29, label %.lr.ph56.split.us.split.us, label %.loopexit, !llvm.loop !37

.lr.ph56.split.us.split:                          ; preds = %.lr.ph56.split.us, %38
  %.14455.us = phi i32 [ %39, %38 ], [ 0, %.lr.ph56.split.us ]
  %30 = tail call ptr @OPENSSL_sk_value(ptr noundef nonnull %5, i32 noundef %.14455.us) #6
  %31 = load ptr, ptr %30, align 8, !tbaa !33
  %32 = getelementptr inbounds nuw i8, ptr %30, i64 8
  %33 = load ptr, ptr %32, align 8, !tbaa !35
  %34 = getelementptr inbounds nuw i8, ptr %30, i64 16
  %35 = load ptr, ptr %34, align 8, !tbaa !36
  %36 = tail call fastcc ptr @X509V3_EXT_nconf_int(ptr noundef %0, ptr noundef %1, ptr noundef %31, ptr noundef %33, ptr noundef %35)
  %37 = icmp eq ptr %36, null
  br i1 %37, label %.loopexit, label %38

38:                                               ; preds = %.lr.ph56.split.us.split
  tail call void @X509_EXTENSION_free(ptr noundef nonnull %36) #6
  %39 = add nuw nsw i32 %.14455.us, 1
  %40 = tail call i32 @OPENSSL_sk_num(ptr noundef nonnull %5) #6
  %41 = icmp slt i32 %39, %40
  br i1 %41, label %.lr.ph56.split.us.split, label %.loopexit, !llvm.loop !37

.lr.ph:                                           ; preds = %.preheader50, %50
  %.053 = phi i32 [ %.1, %50 ], [ -1, %.preheader50 ]
  %.04152 = phi i32 [ %.142, %50 ], [ -1, %.preheader50 ]
  %.04351 = phi i32 [ %51, %50 ], [ 0, %.preheader50 ]
  %42 = tail call ptr @OPENSSL_sk_value(ptr noundef nonnull %5, i32 noundef %.04351) #6
  %43 = getelementptr inbounds nuw i8, ptr %42, i64 8
  %44 = load ptr, ptr %43, align 8, !tbaa !35
  %45 = tail call i32 @strcmp(ptr noundef nonnull dereferenceable(1) %44, ptr noundef nonnull dereferenceable(23) @.str.1) #5
  %46 = icmp eq i32 %45, 0
  br i1 %46, label %50, label %47

47:                                               ; preds = %.lr.ph
  %48 = tail call i32 @strcmp(ptr noundef nonnull dereferenceable(1) %44, ptr noundef nonnull dereferenceable(21) @.str.2) #5
  %49 = icmp eq i32 %48, 0
  %spec.select = select i1 %49, i32 %.04351, i32 %.053
  br label %50

50:                                               ; preds = %47, %.lr.ph
  %.142 = phi i32 [ %.04351, %.lr.ph ], [ %.04152, %47 ]
  %.1 = phi i32 [ %.053, %.lr.ph ], [ %spec.select, %47 ]
  %51 = add nuw nsw i32 %.04351, 1
  %52 = tail call i32 @OPENSSL_sk_num(ptr noundef nonnull %5) #6
  %53 = icmp slt i32 %51, %52
  br i1 %53, label %.lr.ph, label %.preheader, !llvm.loop !38

.lr.ph56.split:                                   ; preds = %.lr.ph56, %82
  %.14455 = phi i32 [ %83, %82 ], [ 0, %.lr.ph56 ]
  %54 = tail call ptr @OPENSSL_sk_value(ptr noundef nonnull %5, i32 noundef %.14455) #6
  br i1 %or.cond.fr, label %55, label %60

55:                                               ; preds = %.lr.ph56.split
  %56 = icmp eq i32 %.14455, %.041.lcssa
  br i1 %56, label %.sink.split73, label %57

57:                                               ; preds = %55
  %58 = icmp eq i32 %.14455, %.0.lcssa
  br i1 %58, label %.sink.split73, label %60

.sink.split73:                                    ; preds = %57, %55
  %.0.lcssa.sink74 = phi i32 [ %.0.lcssa, %55 ], [ %.041.lcssa, %57 ]
  %59 = tail call ptr @OPENSSL_sk_value(ptr noundef nonnull %5, i32 noundef %.0.lcssa.sink74) #6
  br label %60

60:                                               ; preds = %.sink.split73, %57, %.lr.ph56.split
  %.045 = phi ptr [ %54, %57 ], [ %54, %.lr.ph56.split ], [ %59, %.sink.split73 ]
  %61 = load ptr, ptr %.045, align 8, !tbaa !33
  %62 = getelementptr inbounds nuw i8, ptr %.045, i64 8
  %63 = load ptr, ptr %62, align 8, !tbaa !35
  %64 = getelementptr inbounds nuw i8, ptr %.045, i64 16
  %65 = load ptr, ptr %64, align 8, !tbaa !36
  %66 = tail call fastcc ptr @X509V3_EXT_nconf_int(ptr noundef %0, ptr noundef %1, ptr noundef %61, ptr noundef %63, ptr noundef %65)
  %67 = icmp eq ptr %66, null
  br i1 %67, label %.loopexit, label %68

68:                                               ; preds = %60
  %69 = load i32, ptr %1, align 8, !tbaa !39
  %70 = icmp eq i32 %69, 2
  br i1 %70, label %71, label %delete_ext.exit

71:                                               ; preds = %68
  %72 = load ptr, ptr %3, align 8, !tbaa !40
  %73 = tail call ptr @X509_EXTENSION_get_object(ptr noundef nonnull %66) #6
  %74 = tail call i32 @X509v3_get_ext_by_OBJ(ptr noundef %72, ptr noundef %73, i32 noundef -1) #6
  %75 = icmp sgt i32 %74, -1
  br i1 %75, label %.lr.ph.i, label %delete_ext.exit

.lr.ph.i:                                         ; preds = %71, %.lr.ph.i
  %76 = phi i32 [ %78, %.lr.ph.i ], [ %74, %71 ]
  %77 = tail call ptr @X509v3_delete_ext(ptr noundef %72, i32 noundef %76) #6
  tail call void @X509_EXTENSION_free(ptr noundef %77) #6
  %78 = tail call i32 @X509v3_get_ext_by_OBJ(ptr noundef %72, ptr noundef %73, i32 noundef -1) #6
  %79 = icmp sgt i32 %78, -1
  br i1 %79, label %.lr.ph.i, label %delete_ext.exit, !llvm.loop !42

delete_ext.exit:                                  ; preds = %.lr.ph.i, %71, %68
  %80 = tail call ptr @X509v3_add_ext(ptr noundef nonnull %3, ptr noundef nonnull %66, i32 noundef -1) #6
  %81 = icmp eq ptr %80, null
  tail call void @X509_EXTENSION_free(ptr noundef nonnull %66) #6
  br i1 %81, label %.loopexit, label %82

82:                                               ; preds = %delete_ext.exit
  %83 = add nuw nsw i32 %.14455, 1
  %84 = tail call i32 @OPENSSL_sk_num(ptr noundef nonnull %5) #6
  %85 = icmp slt i32 %83, %84
  br i1 %85, label %.lr.ph56.split, label %.loopexit, !llvm.loop !37

.loopexit:                                        ; preds = %60, %82, %delete_ext.exit, %.lr.ph56.split.us.split, %38, %18, %26, %.preheader, %4
  %.046 = phi i32 [ 0, %4 ], [ 1, %.preheader ], [ 0, %18 ], [ 1, %26 ], [ 0, %.lr.ph56.split.us.split ], [ 1, %38 ], [ 0, %60 ], [ 1, %82 ], [ 0, %delete_ext.exit ]
  ret i32 %.046
}